; Function Attrs: nounwind uwtable
define internal fastcc void @_jumbleCreateTrigStmt(ptr noundef %0, ptr noundef nonnull readonly captures(none) %1) unnamed_addr #0 {
  %3 = getelementptr inbounds nuw i8, ptr %1, i64 4
  %4 = load ptr, ptr %0, align 8
  %5 = getelementptr inbounds nuw i8, ptr %0, i64 8
  %6 = load i64, ptr %5, align 8
  br label %.lr.ph.i

.lr.ph.i:                                         ; preds = %10, %2
  %.026.i = phi ptr [ %15, %10 ], [ %3, %2 ]
  %.02125.i = phi i64 [ %16, %10 ], [ 1, %2 ]
  %.02224.i = phi i64 [ %14, %10 ], [ %6, %2 ]
  %7 = icmp ugt i64 %.02224.i, 1023
  br i1 %7, label %8, label %10

8:                                                ; preds = %.lr.ph.i
  %9 = tail call i64 @hash_bytes_extended(ptr noundef %4, i32 noundef 1024, i64 noundef 0) #9
  store i64 %9, ptr %4, align 1
  br label %10

10:                                               ; preds = %8, %.lr.ph.i
  %.1.i = phi i64 [ 8, %8 ], [ %.02224.i, %.lr.ph.i ]
  %11 = sub nuw nsw i64 1024, %.1.i
  %12 = tail call i64 @llvm.umin.i64(i64 %.02125.i, i64 %11)
  %13 = getelementptr inbounds nuw i8, ptr %4, i64 %.1.i
  tail call void @llvm.memcpy.p0.p0.i64(ptr noundef nonnull align 1 dereferenceable(1) %13, ptr noundef nonnull align 1 dereferenceable(1) %.026.i, i64 %12, i1 false)
  %14 = add nuw nsw i64 %12, %.1.i
  %15 = getelementptr inbounds nuw i8, ptr %.026.i, i64 %12
  %16 = sub i64 %.02125.i, %12
  %.not.i = icmp eq i64 %16, 0
  br i1 %.not.i, label %AppendJumble.exit, label %.lr.ph.i, !llvm.loop !7

AppendJumble.exit:                                ; preds = %10
  store i64 %14, ptr %5, align 8
  %17 = getelementptr inbounds nuw i8, ptr %1, i64 5
  %18 = load ptr, ptr %0, align 8
  br label %.lr.ph.i33

.lr.ph.i33:                                       ; preds = %22, %AppendJumble.exit
  %.026.i34 = phi ptr [ %27, %22 ], [ %17, %AppendJumble.exit ]
  %.02125.i35 = phi i64 [ %28, %22 ], [ 1, %AppendJumble.exit ]
  %.02224.i36 = phi i64 [ %26, %22 ], [ %14, %AppendJumble.exit ]
  %19 = icmp ugt i64 %.02224.i36, 1023
  br i1 %19, label %20, label %22

20:                                               ; preds = %.lr.ph.i33
  %21 = tail call i64 @hash_bytes_extended(ptr noundef %18, i32 noundef 1024, i64 noundef 0) #9
  store i64 %21, ptr %18, align 1
  br label %22

22:                                               ; preds = %20, %.lr.ph.i33
  %.1.i37 = phi i64 [ 8, %20 ], [ %.02224.i36, %.lr.ph.i33 ]
  %23 = sub nuw nsw i64 1024, %.1.i37
  %24 = tail call i64 @llvm.umin.i64(i64 %.02125.i35, i64 %23)
  %25 = getelementptr inbounds nuw i8, ptr %18, i64 %.1.i37
  tail call void @llvm.memcpy.p0.p0.i64(ptr noundef nonnull align 1 dereferenceable(1) %25, ptr noundef nonnull align 1 dereferenceable(1) %.026.i34, i64 %24, i1 false)
  %26 = add nuw nsw i64 %24, %.1.i37
  %27 = getelementptr inbounds nuw i8, ptr %.026.i34, i64 %24
  %28 = sub i64 %.02125.i35, %24
  %.not.i38 = icmp eq i64 %28, 0
  br i1 %.not.i38, label %AppendJumble.exit39, label %.lr.ph.i33, !llvm.loop !7

AppendJumble.exit39:                              ; preds = %22
  store i64 %26, ptr %5, align 8
  %29 = getelementptr inbounds nuw i8, ptr %1, i64 8
  %30 = load ptr, ptr %29, align 8
  %.not = icmp eq ptr %30, null
  br i1 %.not, label %45, label %31

31:                                               ; preds = %AppendJumble.exit39
  %32 = tail call i64 @strlen(ptr noundef nonnull dereferenceable(1) %30) #8
  %33 = add i64 %32, 1
  %34 = load ptr, ptr %0, align 8
  %.not23.i = icmp eq i64 %33, 0
  br i1 %.not23.i, label %AppendJumble.exit46, label %.lr.ph.i40

.lr.ph.i40:                                       ; preds = %31, %38
  %.026.i41 = phi ptr [ %43, %38 ], [ %30, %31 ]
  %.02125.i42 = phi i64 [ %44, %38 ], [ %33, %31 ]
  %.02224.i43 = phi i64 [ %42, %38 ], [ %26, %31 ]
  %35 = icmp ugt i64 %.02224.i43, 1023
  br i1 %35, label %36, label %38

36:                                               ; preds = %.lr.ph.i40
  %37 = tail call i64 @hash_bytes_extended(ptr noundef %34, i32 noundef 1024, i64 noundef 0) #9
  store i64 %37, ptr %34, align 1
  br label %38

38:                                               ; preds = %36, %.lr.ph.i40
  %.1.i44 = phi i64 [ 8, %36 ], [ %.02224.i43, %.lr.ph.i40 ]
  %39 = sub nuw nsw i64 1024, %.1.i44
  %40 = tail call i64 @llvm.umin.i64(i64 %.02125.i42, i64 %39)
  %41 = getelementptr inbounds nuw i8, ptr %34, i64 %.1.i44
  tail call void @llvm.memcpy.p0.p0.i64(ptr noundef nonnull align 1 dereferenceable(1) %41, ptr noundef nonnull align 1 dereferenceable(1) %.026.i41, i64 %40, i1 false)
  %42 = add nuw nsw i64 %40, %.1.i44
  %43 = getelementptr inbounds nuw i8, ptr %.026.i41, i64 %40
  %44 = sub i64 %.02125.i42, %40
  %.not.i45 = icmp eq i64 %44, 0
  br i1 %.not.i45, label %AppendJumble.exit46, label %.lr.ph.i40, !llvm.loop !7

AppendJumble.exit46:                              ; preds = %38, %31
  %.022.lcssa.i = phi i64 [ %26, %31 ], [ %42, %38 ]
  store i64 %.022.lcssa.i, ptr %5, align 8
  br label %45

45:                                               ; preds = %AppendJumble.exit46, %AppendJumble.exit39
  %46 = getelementptr inbounds nuw i8, ptr %1, i64 16
  %47 = load ptr, ptr %46, align 8
  tail call fastcc void @_jumbleNode(ptr noundef nonnull %0, ptr noundef %47)
  %48 = getelementptr inbounds nuw i8, ptr %1, i64 24
  %49 = load ptr, ptr %48, align 8
  tail call fastcc void @_jumbleNode(ptr noundef nonnull %0, ptr noundef %49)
  %50 = getelementptr inbounds nuw i8, ptr %1, i64 32
  %51 = load ptr, ptr %50, align 8
  tail call fastcc void @_jumbleNode(ptr noundef nonnull %0, ptr noundef %51)
  %52 = getelementptr inbounds nuw i8, ptr %1, i64 40
  %53 = load ptr, ptr %0, align 8
  %54 = load i64, ptr %5, align 8
  br label %.lr.ph.i47

.lr.ph.i47:                                       ; preds = %58, %45
  %.026.i48 = phi ptr [ %63, %58 ], [ %52, %45 ]
  %.02125.i49 = phi i64 [ %64, %58 ], [ 1, %45 ]
  %.02224.i50 = phi i64 [ %62, %58 ], [ %54, %45 ]
  %55 = icmp ugt i64 %.02224.i50, 1023
  br i1 %55, label %56, label %58

56:                                               ; preds = %.lr.ph.i47
  %57 = tail call i64 @hash_bytes_extended(ptr noundef %53, i32 noundef 1024, i64 noundef 0) #9
  store i64 %57, ptr %53, align 1
  br label %58

58:                                               ; preds = %56, %.lr.ph.i47
  %.1.i51 = phi i64 [ 8, %56 ], [ %.02224.i50, %.lr.ph.i47 ]
  %59 = sub nuw nsw i64 1024, %.1.i51
  %60 = tail call i64 @llvm.umin.i64(i64 %.02125.i49, i64 %59)
  %61 = getelementptr inbounds nuw i8, ptr %53, i64 %.1.i51
  tail call void @llvm.memcpy.p0.p0.i64(ptr noundef nonnull align 1 dereferenceable(1) %61, ptr noundef nonnull align 1 dereferenceable(1) %.026.i48, i64 %60, i1 false)
  %62 = add nuw nsw i64 %60, %.1.i51
  %63 = getelementptr inbounds nuw i8, ptr %.026.i48, i64 %60
  %64 = sub i64 %.02125.i49, %60
  %.not.i52 = icmp eq i64 %64, 0
  br i1 %.not.i52, label %AppendJumble.exit54, label %.lr.ph.i47, !llvm.loop !7

AppendJumble.exit54:                              ; preds = %58
  store i64 %62, ptr %5, align 8
  %65 = getelementptr inbounds nuw i8, ptr %1, i64 42
  %66 = load ptr, ptr %0, align 8
  br label %.lr.ph.i55

.lr.ph.i55:                                       ; preds = %70, %AppendJumble.exit54
  %.026.i56 = phi ptr [ %75, %70 ], [ %65, %AppendJumble.exit54 ]
  %.02125.i57 = phi i64 [ %76, %70 ], [ 2, %AppendJumble.exit54 ]
  %.02224.i58 = phi i64 [ %74, %70 ], [ %62, %AppendJumble.exit54 ]
  %67 = icmp ugt i64 %.02224.i58, 1023
  br i1 %67, label %68, label %70

68:                                               ; preds = %.lr.ph.i55
  %69 = tail call i64 @hash_bytes_extended(ptr noundef %66, i32 noundef 1024, i64 noundef 0) #9
  store i64 %69, ptr %66, align 1
  br label %70

70:                                               ; preds = %68, %.lr.ph.i55
  %.1.i59 = phi i64 [ 8, %68 ], [ %.02224.i58, %.lr.ph.i55 ]
  %71 = sub nuw nsw i64 1024, %.1.i59
  %72 = tail call i64 @llvm.umin.i64(i64 %.02125.i57, i64 %71)
  %73 = getelementptr inbounds nuw i8, ptr %66, i64 %.1.i59
  tail call void @llvm.memcpy.p0.p0.i64(ptr noundef nonnull align 1 dereferenceable(1) %73, ptr noundef nonnull align 1 dereferenceable(1) %.026.i56, i64 %72, i1 false)
  %74 = add nuw nsw i64 %72, %.1.i59
  %75 = getelementptr inbounds nuw i8, ptr %.026.i56, i64 %72
  %76 = sub i64 %.02125.i57, %72
  %.not.i60 = icmp eq i64 %76, 0
  br i1 %.not.i60, label %AppendJumble.exit62, label %.lr.ph.i55, !llvm.loop !7

AppendJumble.exit62:                              ; preds = %70
  store i64 %74, ptr %5, align 8
  %77 = getelementptr inbounds nuw i8, ptr %1, i64 44
  %78 = load ptr, ptr %0, align 8
  br label %.lr.ph.i63

.lr.ph.i63:                                       ; preds = %82, %AppendJumble.exit62
  %.026.i64 = phi ptr [ %87, %82 ], [ %77, %AppendJumble.exit62 ]
  %.02125.i65 = phi i64 [ %88, %82 ], [ 2, %AppendJumble.exit62 ]
  %.02224.i66 = phi i64 [ %86, %82 ], [ %74, %AppendJumble.exit62 ]
  %79 = icmp ugt i64 %.02224.i66, 1023
  br i1 %79, label %80, label %82

80:                                               ; preds = %.lr.ph.i63
  %81 = tail call i64 @hash_bytes_extended(ptr noundef %78, i32 noundef 1024, i64 noundef 0) #9
  store i64 %81, ptr %78, align 1
  br label %82

82:                                               ; preds = %80, %.lr.ph.i63
  %.1.i67 = phi i64 [ 8, %80 ], [ %.02224.i66, %.lr.ph.i63 ]
  %83 = sub nuw nsw i64 1024, %.1.i67
  %84 = tail call i64 @llvm.umin.i64(i64 %.02125.i65, i64 %83)
  %85 = getelementptr inbounds nuw i8, ptr %78, i64 %.1.i67
  tail call void @llvm.memcpy.p0.p0.i64(ptr noundef nonnull align 1 dereferenceable(1) %85, ptr noundef nonnull align 1 dereferenceable(1) %.026.i64, i64 %84, i1 false)
  %86 = add nuw nsw i64 %84, %.1.i67
  %87 = getelementptr inbounds nuw i8, ptr %.026.i64, i64 %84
  %88 = sub i64 %.02125.i65, %84
  %.not.i68 = icmp eq i64 %88, 0
  br i1 %.not.i68, label %AppendJumble.exit70, label %.lr.ph.i63, !llvm.loop !7

AppendJumble.exit70:                              ; preds = %82
  store i64 %86, ptr %5, align 8
  %89 = getelementptr inbounds nuw i8, ptr %1, i64 48
  %90 = load ptr, ptr %89, align 8
  tail call fastcc void @_jumbleNode(ptr noundef nonnull %0, ptr noundef %90)
  %91 = getelementptr inbounds nuw i8, ptr %1, i64 56
  %92 = load ptr, ptr %91, align 8
  tail call fastcc void @_jumbleNode(ptr noundef nonnull %0, ptr noundef %92)
  %93 = getelementptr inbounds nuw i8, ptr %1, i64 64
  %94 = load ptr, ptr %93, align 8
  tail call fastcc void @_jumbleNode(ptr noundef nonnull %0, ptr noundef %94)
  %95 = getelementptr inbounds nuw i8, ptr %1, i64 72
  %96 = load ptr, ptr %0, align 8
  %97 = load i64, ptr %5, align 8
  br label %.lr.ph.i71

.lr.ph.i71:                                       ; preds = %101, %AppendJumble.exit70
  %.026.i72 = phi ptr [ %106, %101 ], [ %95, %AppendJumble.exit70 ]
  %.02125.i73 = phi i64 [ %107, %101 ], [ 1, %AppendJumble.exit70 ]
  %.02224.i74 = phi i64 [ %105, %101 ], [ %97, %AppendJumble.exit70 ]
  %98 = icmp ugt i64 %.02224.i74, 1023
  br i1 %98, label %99, label %101

99:                                               ; preds = %.lr.ph.i71
  %100 = tail call i64 @hash_bytes_extended(ptr noundef %96, i32 noundef 1024, i64 noundef 0) #9
  store i64 %100, ptr %96, align 1
  br label %101

101:                                              ; preds = %99, %.lr.ph.i71
  %.1.i75 = phi i64 [ 8, %99 ], [ %.02224.i74, %.lr.ph.i71 ]
  %102 = sub nuw nsw i64 1024, %.1.i75
  %103 = tail call i64 @llvm.umin.i64(i64 %.02125.i73, i64 %102)
  %104 = getelementptr inbounds nuw i8, ptr %96, i64 %.1.i75
  tail call void @llvm.memcpy.p0.p0.i64(ptr noundef nonnull align 1 dereferenceable(1) %104, ptr noundef nonnull align 1 dereferenceable(1) %.026.i72, i64 %103, i1 false)
  %105 = add nuw nsw i64 %103, %.1.i75
  %106 = getelementptr inbounds nuw i8, ptr %.026.i72, i64 %103
  %107 = sub i64 %.02125.i73, %103
  %.not.i76 = icmp eq i64 %107, 0
  br i1 %.not.i76, label %AppendJumble.exit78, label %.lr.ph.i71, !llvm.loop !7

AppendJumble.exit78:                              ; preds = %101
  store i64 %105, ptr %5, align 8
  %108 = getelementptr inbounds nuw i8, ptr %1, i64 73
  %109 = load ptr, ptr %0, align 8
  br label %.lr.ph.i79

.lr.ph.i79:                                       ; preds = %113, %AppendJumble.exit78
  %.026.i80 = phi ptr [ %118, %113 ], [ %108, %AppendJumble.exit78 ]
  %.02125.i81 = phi i64 [ %119, %113 ], [ 1, %AppendJumble.exit78 ]
  %.02224.i82 = phi i64 [ %117, %113 ], [ %105, %AppendJumble.exit78 ]
  %110 = icmp ugt i64 %.02224.i82, 1023
  br i1 %110, label %111, label %113

111:                                              ; preds = %.lr.ph.i79
  %112 = tail call i64 @hash_bytes_extended(ptr noundef %109, i32 noundef 1024, i64 noundef 0) #9
  store i64 %112, ptr %109, align 1
  br label %113

113:                                              ; preds = %111, %.lr.ph.i79
  %.1.i83 = phi i64 [ 8, %111 ], [ %.02224.i82, %.lr.ph.i79 ]
  %114 = sub nuw nsw i64 1024, %.1.i83
  %115 = tail call i64 @llvm.umin.i64(i64 %.02125.i81, i64 %114)
  %116 = getelementptr inbounds nuw i8, ptr %109, i64 %.1.i83
  tail call void @llvm.memcpy.p0.p0.i64(ptr noundef nonnull align 1 dereferenceable(1) %116, ptr noundef nonnull align 1 dereferenceable(1) %.026.i80, i64 %115, i1 false)
  %117 = add nuw nsw i64 %115, %.1.i83
  %118 = getelementptr inbounds nuw i8, ptr %.026.i80, i64 %115
  %119 = sub i64 %.02125.i81, %115
  %.not.i84 = icmp eq i64 %119, 0
  br i1 %.not.i84, label %AppendJumble.exit86, label %.lr.ph.i79, !llvm.loop !7

AppendJumble.exit86:                              ; preds = %113
  store i64 %117, ptr %5, align 8
  %120 = getelementptr inbounds nuw i8, ptr %1, i64 80
  %121 = load ptr, ptr %120, align 8
  tail call fastcc void @_jumbleNode(ptr noundef nonnull %0, ptr noundef %121)
  ret void
}